; ModuleID = '44/1380.c'
source_filename = "44/1380.c"
target datalayout = "e-m:e-p270:32:32-p271:32:32-p272:64:64-i64:64-f80:128-n8:16:32:64-S128"
target triple = "x86_64-pc-linux-gnu"

@.str = private unnamed_addr constant [3 x i8] c"%d\00", align 1
@.str.1 = private unnamed_addr constant [3 x i8] c"0\0A\00", align 1
@.str.2 = private unnamed_addr constant [4 x i8] c"%d\0A\00", align 1

; Function Attrs: noinline nounwind uwtable
define dso_local i32 @reverse(i32 %0) #0 {
  %2 = alloca i32, align 4
  %3 = alloca i32, align 4
  %4 = alloca i32, align 4
  %5 = alloca i32, align 4
  %6 = alloca i32, align 4
  store i32 %0, i32* %2, align 4
  %7 = load i32, i32* %2, align 4
  %8 = icmp sgt i32 %7, 0
  br i1 %8, label %9, label %11

9:                                                ; preds = %1
  %10 = load i32, i32* %2, align 4
  store i32 %10, i32* %5, align 4
  br label %14

11:                                               ; preds = %1
  %12 = load i32, i32* %2, align 4
  %13 = sub nsw i32 0, %12
  store i32 %13, i32* %5, align 4
  br label %14

14:                                               ; preds = %11, %9
  store i32 0, i32* %6, align 4
  store i32 1, i32* %3, align 4
  br label %15

15:                                               ; preds = %27, %14
  %16 = load i32, i32* %5, align 4
  %17 = icmp sgt i32 %16, 0
  br i1 %17, label %18, label %30

18:                                               ; preds = %15
  %19 = load i32, i32* %5, align 4
  %20 = srem i32 %19, 10
  store i32 %20, i32* %4, align 4
  %21 = load i32, i32* %6, align 4
  %22 = mul nsw i32 %21, 10
  %23 = load i32, i32* %4, align 4
  %24 = add nsw i32 %22, %23
  store i32 %24, i32* %6, align 4
  %25 = load i32, i32* %5, align 4
  %26 = sdiv i32 %25, 10
  store i32 %26, i32* %5, align 4
  br label %27

27:                                               ; preds = %18
  %28 = load i32, i32* %3, align 4
  %29 = add nsw i32 %28, 1
  store i32 %29, i32* %3, align 4
  br label %15

30:                                               ; preds = %15
  %31 = load i32, i32* %2, align 4
  %32 = icmp slt i32 %31, 0
  br i1 %32, label %33, label %36

33:                                               ; preds = %30
  %34 = load i32, i32* %6, align 4
  %35 = sub nsw i32 0, %34
  store i32 %35, i32* %6, align 4
  br label %36

36:                                               ; preds = %33, %30
  %37 = load i32, i32* %6, align 4
  ret i32 %37
}

; Function Attrs: noinline nounwind uwtable
define dso_local i32 @main() #0 {
  %1 = alloca i32, align 4
  %2 = alloca i32, align 4
  %3 = alloca [7 x i32], align 16
  %4 = alloca [7 x i32], align 16
  store i32 0, i32* %1, align 4
  store i32 1, i32* %2, align 4
  br label %5

5:                                                ; preds = %13, %0
  %6 = load i32, i32* %2, align 4
  %7 = icmp sle i32 %6, 6
  br i1 %7, label %8, label %16

8:                                                ; preds = %5
  %9 = load i32, i32* %2, align 4
  %10 = sext i32 %9 to i64
  %11 = getelementptr inbounds [7 x i32], [7 x i32]* %3, i64 0, i64 %10
  %12 = call i32 (i8*, ...) @__isoc99_scanf(i8* getelementptr inbounds ([3 x i8], [3 x i8]* @.str, i64 0, i64 0), i32* %11)
  br label %13

13:                                               ; preds = %8
  %14 = load i32, i32* %2, align 4
  %15 = add nsw i32 %14, 1
  store i32 %15, i32* %2, align 4
  br label %5

16:                                               ; preds = %5
  store i32 1, i32* %2, align 4
  br label %17

17:                                               ; preds = %43, %16
  %18 = load i32, i32* %2, align 4
  %19 = icmp sle i32 %18, 6
  br i1 %19, label %20, label %46

20:                                               ; preds = %17
  %21 = load i32, i32* %2, align 4
  %22 = sext i32 %21 to i64
  %23 = getelementptr inbounds [7 x i32], [7 x i32]* %3, i64 0, i64 %22
  %24 = load i32, i32* %23, align 4
  %25 = icmp eq i32 %24, 0
  br i1 %25, label %26, label %28

26:                                               ; preds = %20
  %27 = call i32 (i8*, ...) @printf(i8* getelementptr inbounds ([3 x i8], [3 x i8]* @.str.1, i64 0, i64 0))
  br label %42

28:                                               ; preds = %20
  %29 = load i32, i32* %2, align 4
  %30 = sext i32 %29 to i64
  %31 = getelementptr inbounds [7 x i32], [7 x i32]* %3, i64 0, i64 %30
  %32 = load i32, i32* %31, align 4
  %33 = call i32 @reverse(i32 %32)
  %34 = load i32, i32* %2, align 4
  %35 = sext i32 %34 to i64
  %36 = getelementptr inbounds [7 x i32], [7 x i32]* %4, i64 0, i64 %35
  store i32 %33, i32* %36, align 4
  %37 = load i32, i32* %2, align 4
  %38 = sext i32 %37 to i64
  %39 = getelementptr inbounds [7 x i32], [7 x i32]* %4, i64 0, i64 %38
  %40 = load i32, i32* %39, align 4
  %41 = call i32 (i8*, ...) @printf(i8* getelementptr inbounds ([4 x i8], [4 x i8]* @.str.2, i64 0, i64 0), i32 %40)
  br label %42

42:                                               ; preds = %28, %26
  br label %43

43:                                               ; preds = %42
  %44 = load i32, i32* %2, align 4
  %45 = add nsw i32 %44, 1
  store i32 %45, i32* %2, align 4
  br label %17

46:                                               ; preds = %17
  %47 = load i32, i32* %1, align 4
  ret i32 %47
}

declare dso_local i32 @__isoc99_scanf(i8*, ...) #1

declare dso_local i32 @printf(i8*, ...) #1


!llvm.module.flags = !{!0}
!llvm.ident = !{!1}

!0 = !{i32 1, !"wchar_size", i32 4}
!1 = !{!"clang version 10.0.0-4ubuntu1 "}
